target datalayout = "e-m:e-p270:32:32-p271:32:32-p272:64:64-i64:64-i128:128-f80:128-n8:16:32:64-S128"
target triple = "x86_64-pc-linux-gnu"

%struct.PageHeaderData = type { %struct.PageXLogRecPtr, i16, i16, i16, i16, i16, i16, i32, [0 x %struct.ItemIdData] }
%struct.PageXLogRecPtr = type { i32, i32 }
%struct.ItemIdData = type { i32 }
%struct.IndexTupleData = type { %struct.ItemPointerData, i16 }
%struct.ItemPointerData = type { %struct.BlockIdData, i16 }
%struct.BlockIdData = type { i16, i16 }

@.str = private unnamed_addr constant [72 x i8] c"failed to add item to GiST index page, item %d out of %d, size %d bytes\00", align 1
@.str.1 = private unnamed_addr constant [11 x i8] c"gistutil.c\00", align 1
@__func__.gistfillbuffer = private unnamed_addr constant [15 x i8] c"gistfillbuffer\00", align 1

; Function Attrs: inlinehint nounwind uwtable
define internal i64 @IndexTupleSize(ptr noundef %0) #2 {
  %2 = alloca ptr, align 8
  store ptr %0, ptr %2, align 8
  %3 = load ptr, ptr %2, align 8
  %4 = getelementptr inbounds nuw %struct.IndexTupleData, ptr %3, i32 0, i32 1
  %5 = load i16, ptr %4, align 2
  %6 = zext i16 %5 to i32
  %7 = and i32 %6, 8191
  %8 = sext i32 %7 to i64
  ret i64 %8
}

; Function Attrs: inlinehint nounwind uwtable
define internal zeroext i16 @PageGetMaxOffsetNumber(ptr noundef %0) #2 {
  %2 = alloca i16, align 2
  %3 = alloca ptr, align 8
  %4 = alloca ptr, align 8
  %5 = alloca i32, align 4
  store ptr %0, ptr %3, align 8
  call void @llvm.lifetime.start.p0(i64 8, ptr %4) #8
  %6 = load ptr, ptr %3, align 8
  store ptr %6, ptr %4, align 8
  %7 = load ptr, ptr %4, align 8
  %8 = getelementptr inbounds nuw %struct.PageHeaderData, ptr %7, i32 0, i32 3
  %9 = load i16, ptr %8, align 4
  %10 = zext i16 %9 to i64
  %11 = icmp ule i64 %10, 24
  br i1 %11, label %12, label %13

12:                                               ; preds = %1
  store i16 0, ptr %2, align 2
  store i32 1, ptr %5, align 4
  br label %21

13:                                               ; preds = %1
  %14 = load ptr, ptr %4, align 8
  %15 = getelementptr inbounds nuw %struct.PageHeaderData, ptr %14, i32 0, i32 3
  %16 = load i16, ptr %15, align 4
  %17 = zext i16 %16 to i64
  %18 = sub i64 %17, 24
  %19 = udiv i64 %18, 4
  %20 = trunc i64 %19 to i16
  store i16 %20, ptr %2, align 2
  store i32 1, ptr %5, align 4
  br label %21

21:                                               ; preds = %13, %12
  call void @llvm.lifetime.end.p0(i64 8, ptr %4) #8
  %22 = load i16, ptr %2, align 2
  ret i16 %22
}

; Function Attrs: inlinehint nounwind uwtable
define internal zeroext i1 @PageIsEmpty(ptr noundef %0) #2 {
  %2 = alloca ptr, align 8
  store ptr %0, ptr %2, align 8
  %3 = load ptr, ptr %2, align 8
  %4 = getelementptr inbounds nuw %struct.PageHeaderData, ptr %3, i32 0, i32 3
  %5 = load i16, ptr %4, align 4
  %6 = zext i16 %5 to i64
  %7 = icmp ule i64 %6, 24
  ret i1 %7
}

; Function Attrs: nounwind uwtable
define dso_local void @gistfillbuffer(ptr noundef %0, ptr noundef %1, i32 noundef %2, i16 noundef zeroext %3) #0 {
  %5 = alloca ptr, align 8
  %6 = alloca ptr, align 8
  %7 = alloca i32, align 4
  %8 = alloca i16, align 2
  %9 = alloca i32, align 4
  %10 = alloca i64, align 8
  %11 = alloca i16, align 2
  store ptr %0, ptr %5, align 8
  store ptr %1, ptr %6, align 8
  store i32 %2, ptr %7, align 4
  store i16 %3, ptr %8, align 2
  call void @llvm.lifetime.start.p0(i64 4, ptr %9) #8
  %12 = load i16, ptr %8, align 2
  %13 = zext i16 %12 to i32
  %14 = icmp eq i32 %13, 0
  br i1 %14, label %15, label %29

15:                                               ; preds = %4
  %16 = load ptr, ptr %5, align 8
  %17 = call zeroext i1 @PageIsEmpty(ptr noundef %16)
  br i1 %17, label %18, label %19

18:                                               ; preds = %15
  br label %26

19:                                               ; preds = %15
  %20 = load ptr, ptr %5, align 8
  %21 = call zeroext i16 @PageGetMaxOffsetNumber(ptr noundef %20)
  %22 = zext i16 %21 to i32
  %23 = add i32 1, %22
  %24 = trunc i32 %23 to i16
  %25 = zext i16 %24 to i32
  br label %26

26:                                               ; preds = %19, %18
  %27 = phi i32 [ 1, %18 ], [ %25, %19 ]
  %28 = trunc i32 %27 to i16
  store i16 %28, ptr %8, align 2
  br label %29

29:                                               ; preds = %26, %4
  store i32 0, ptr %9, align 4
  br label %30

30:                                               ; preds = %71, %29
  %31 = load i32, ptr %9, align 4
  %32 = load i32, ptr %7, align 4
  %33 = icmp slt i32 %31, %32
  br i1 %33, label %34, label %74

34:                                               ; preds = %30
  call void @llvm.lifetime.start.p0(i64 8, ptr %10) #8
  %35 = load ptr, ptr %6, align 8
  %36 = load i32, ptr %9, align 4
  %37 = sext i32 %36 to i64
  %38 = getelementptr inbounds ptr, ptr %35, i64 %37
  %39 = load ptr, ptr %38, align 8
  %40 = call i64 @IndexTupleSize(ptr noundef %39)
  store i64 %40, ptr %10, align 8
  call void @llvm.lifetime.start.p0(i64 2, ptr %11) #8
  %41 = load ptr, ptr %5, align 8
  %42 = load ptr, ptr %6, align 8
  %43 = load i32, ptr %9, align 4
  %44 = sext i32 %43 to i64
  %45 = getelementptr inbounds ptr, ptr %42, i64 %44
  %46 = load ptr, ptr %45, align 8
  %47 = load i64, ptr %10, align 8
  %48 = load i16, ptr %8, align 2
  %49 = call zeroext i16 @PageAddItemExtended(ptr noundef %41, ptr noundef %46, i64 noundef %47, i16 noundef zeroext %48, i32 noundef 0)
  store i16 %49, ptr %11, align 2
  %50 = load i16, ptr %11, align 2
  %51 = zext i16 %50 to i32
  %52 = icmp eq i32 %51, 0
  br i1 %52, label %53, label %68

53:                                               ; preds = %34
  br label %54

54:                                               ; preds = %53
  br i1 true, label %55, label %57

55:                                               ; preds = %54
  %56 = call zeroext i1 @errstart_cold(i32 noundef 21, ptr noundef null) #9
  br i1 %56, label %59, label %65

57:                                               ; preds = %54
  %58 = call zeroext i1 @errstart(i32 noundef 21, ptr noundef null)
  br i1 %58, label %59, label %65

59:                                               ; preds = %57, %55
  %60 = load i32, ptr %9, align 4
  %61 = load i32, ptr %7, align 4
  %62 = load i64, ptr %10, align 8
  %63 = trunc i64 %62 to i32
  %64 = call i32 (ptr, ...) @errmsg_internal(ptr noundef @.str, i32 noundef %60, i32 noundef %61, i32 noundef %63)
  call void @errfinish(ptr noundef @.str.1, i32 noundef 50, ptr noundef @__func__.gistfillbuffer)
  br label %65

65:                                               ; preds = %59, %57, %55
  unreachable

66:                                               ; No predecessors!
  br label %67

67:                                               ; preds = %66
  br label %68

68:                                               ; preds = %67, %34
  %69 = load i16, ptr %8, align 2
  %70 = add i16 %69, 1
  store i16 %70, ptr %8, align 2
  call void @llvm.lifetime.end.p0(i64 2, ptr %11) #8
  call void @llvm.lifetime.end.p0(i64 8, ptr %10) #8
  br label %71

71:                                               ; preds = %68
  %72 = load i32, ptr %9, align 4
  %73 = add i32 %72, 1
  store i32 %73, ptr %9, align 4
  br label %30, !llvm.loop !4

74:                                               ; preds = %30
  call void @llvm.lifetime.end.p0(i64 4, ptr %9) #8
  ret void
}