; Function Attrs: nounwind uwtable
define dso_local void @gistfillbuffer(ptr noundef %0, ptr noundef readonly captures(none) %1, i32 noundef %2, i16 noundef zeroext %3) local_unnamed_addr #0 {
  %5 = icmp eq i16 %3, 0
  br i1 %5, label %6, label %14

6:                                                ; preds = %4
  %7 = getelementptr i8, ptr %0, i64 12
  %.val = load i16, ptr %7, align 4
  %8 = icmp ult i16 %.val, 25
  br i1 %8, label %14, label %9

9:                                                ; preds = %6
  %10 = zext i16 %.val to i32
  %11 = add nuw nsw i32 %10, 262120
  %12 = lshr i32 %11, 2
  %13 = trunc i32 %12 to i16
  %narrow = add nuw nsw i16 %13, 1
  br label %14

14:                                               ; preds = %9, %6, %4
  %.0 = phi i16 [ %3, %4 ], [ %narrow, %9 ], [ 1, %6 ]
  %15 = icmp sgt i32 %2, 0
  br i1 %15, label %.lr.ph.preheader, label %._crit_edge

.lr.ph.preheader:                                 ; preds = %14
  %wide.trip.count = zext nneg i32 %2 to i64
  br label %.lr.ph

.lr.ph:                                           ; preds = %.lr.ph.preheader, %28
  %indvars.iv = phi i64 [ 0, %.lr.ph.preheader ], [ %indvars.iv.next, %28 ]
  %.123 = phi i16 [ %.0, %.lr.ph.preheader ], [ %29, %28 ]
  %16 = getelementptr inbounds nuw ptr, ptr %1, i64 %indvars.iv
  %17 = load ptr, ptr %16, align 8
  %18 = getelementptr i8, ptr %17, i64 6
  %.val20 = load i16, ptr %18, align 2
  %19 = and i16 %.val20, 8191
  %20 = zext nneg i16 %19 to i64
  %21 = tail call zeroext i16 @PageAddItemExtended(ptr noundef %0, ptr noundef %17, i64 noundef %20, i16 noundef zeroext %.123, i32 noundef 0) #11
  %22 = icmp eq i16 %21, 0
  br i1 %22, label %23, label %28

23:                                               ; preds = %.lr.ph
  %24 = trunc nuw nsw i64 %indvars.iv to i32
  %25 = tail call zeroext i1 @errstart_cold(i32 noundef 21, ptr noundef null) #12
  tail call void @llvm.assume(i1 %25)
  %26 = zext nneg i16 %19 to i32
  %27 = tail call i32 (ptr, ...) @errmsg_internal(ptr noundef nonnull @.str, i32 noundef %24, i32 noundef %2, i32 noundef %26) #11
  tail call void @errfinish(ptr noundef nonnull @.str.1, i32 noundef 50, ptr noundef nonnull @__func__.gistfillbuffer) #11
  unreachable

28:                                               ; preds = %.lr.ph
  %29 = add i16 %.123, 1
  %indvars.iv.next = add nuw nsw i64 %indvars.iv, 1
  %exitcond.not = icmp eq i64 %indvars.iv.next, %wide.trip.count
  br i1 %exitcond.not, label %._crit_edge, label %.lr.ph, !llvm.loop !4

._crit_edge:                                      ; preds = %28, %14
  ret void
}